; Function Attrs: mustprogress nounwind uwtable
define dso_local noundef zeroext i1 @_ZN4llvm8isFiniteEPKNS_4LoopE(ptr nocapture noundef readonly %0) local_unnamed_addr #0 {
  %2 = getelementptr inbounds nuw i8, ptr %0, i64 32
  %3 = load ptr, ptr %2, align 8
  %4 = load ptr, ptr %3, align 8
  %5 = getelementptr inbounds nuw i8, ptr %4, i64 72
  %6 = load ptr, ptr %5, align 8
  %7 = tail call noundef zeroext i1 @_ZNK4llvm8Function14hasFnAttributeENS_9Attribute8AttrKindE(ptr noundef nonnull align 8 dereferenceable(136) %6, i32 noundef 72) #19
  ret i1 %7
}